target datalayout = "e-m:e-p270:32:32-p271:32:32-p272:64:64-i64:64-i128:128-f80:128-n8:16:32:64-S128"
target triple = "x86_64-pc-linux-gnu"

%class.DataHash = type { i32, i32, ptr }

; Function Attrs: mustprogress uwtable
define void @_ZN8DataHash6UpdateEPKvm(ptr noundef nonnull align 8 dereferenceable(16) %0, ptr noundef %1, i64 noundef %2) #6 align 2 {
  %4 = alloca ptr, align 8
  %5 = alloca ptr, align 8
  %6 = alloca i64, align 8
  store ptr %0, ptr %4, align 8
  store ptr %1, ptr %5, align 8
  store i64 %2, ptr %6, align 8
  %7 = load ptr, ptr %4, align 8
  %8 = getelementptr inbounds %class.DataHash, ptr %7, i32 0, i32 0
  %9 = load i32, ptr %8, align 8
  %10 = icmp eq i32 %9, 1
  br i1 %10, label %11, label %20

11:                                               ; preds = %3
  %12 = getelementptr inbounds %class.DataHash, ptr %7, i32 0, i32 1
  %13 = load i32, ptr %12, align 4
  %14 = trunc i32 %13 to i16
  %15 = load ptr, ptr %5, align 8
  %16 = load i64, ptr %6, align 8
  %17 = call noundef zeroext i16 @_Z10Checksum14tPKvm(i16 noundef zeroext %14, ptr noundef %15, i64 noundef %16)
  %18 = zext i16 %17 to i32
  %19 = getelementptr inbounds %class.DataHash, ptr %7, i32 0, i32 1
  store i32 %18, ptr %19, align 4
  br label %20

20:                                               ; preds = %11, %3
  %21 = getelementptr inbounds %class.DataHash, ptr %7, i32 0, i32 0
  %22 = load i32, ptr %21, align 8
  %23 = icmp eq i32 %22, 2
  br i1 %23, label %24, label %31

24:                                               ; preds = %20
  %25 = getelementptr inbounds %class.DataHash, ptr %7, i32 0, i32 1
  %26 = load i32, ptr %25, align 4
  %27 = load ptr, ptr %5, align 8
  %28 = load i64, ptr %6, align 8
  %29 = call noundef i32 @_Z5CRC32jPKvm(i32 noundef %26, ptr noundef %27, i64 noundef %28)
  %30 = getelementptr inbounds %class.DataHash, ptr %7, i32 0, i32 1
  store i32 %29, ptr %30, align 4
  br label %31

31:                                               ; preds = %24, %20
  %32 = getelementptr inbounds %class.DataHash, ptr %7, i32 0, i32 0
  %33 = load i32, ptr %32, align 8
  %34 = icmp eq i32 %33, 3
  br i1 %34, label %35, label %40

35:                                               ; preds = %31
  %36 = getelementptr inbounds %class.DataHash, ptr %7, i32 0, i32 2
  %37 = load ptr, ptr %36, align 8
  %38 = load ptr, ptr %5, align 8
  %39 = load i64, ptr %6, align 8
  call void @_Z15blake2sp_updateP14blake2sp_statePKhm(ptr noundef %37, ptr noundef %38, i64 noundef %39)
  br label %40

40:                                               ; preds = %35, %31
  ret void
}