; Function Attrs: mustprogress uwtable
define void @_ZN8DataHash6UpdateEPKvm(ptr nocapture noundef nonnull align 8 dereferenceable(16) %0, ptr noundef %1, i64 noundef %2) local_unnamed_addr #8 align 2 {
  %4 = load i32, ptr %0, align 8
  %5 = icmp eq i32 %4, 1
  br i1 %5, label %6, label %12

6:                                                ; preds = %3
  %7 = getelementptr inbounds i8, ptr %0, i64 4
  %8 = load i32, ptr %7, align 4
  %9 = trunc i32 %8 to i16
  %10 = tail call noundef zeroext i16 @_Z10Checksum14tPKvm(i16 noundef zeroext %9, ptr noundef %1, i64 noundef %2)
  %11 = zext i16 %10 to i32
  store i32 %11, ptr %7, align 4
  %.pr = load i32, ptr %0, align 8
  br label %12

12:                                               ; preds = %6, %3
  %13 = phi i32 [ %.pr, %6 ], [ %4, %3 ]
  %14 = icmp eq i32 %13, 2
  br i1 %14, label %15, label %19

15:                                               ; preds = %12
  %16 = getelementptr inbounds i8, ptr %0, i64 4
  %17 = load i32, ptr %16, align 4
  %18 = tail call noundef i32 @_Z5CRC32jPKvm(i32 noundef %17, ptr noundef %1, i64 noundef %2)
  store i32 %18, ptr %16, align 4
  %.pre = load i32, ptr %0, align 8
  br label %19

19:                                               ; preds = %15, %12
  %20 = phi i32 [ %.pre, %15 ], [ %13, %12 ]
  %21 = icmp eq i32 %20, 3
  br i1 %21, label %22, label %25

22:                                               ; preds = %19
  %23 = getelementptr inbounds i8, ptr %0, i64 8
  %24 = load ptr, ptr %23, align 8
  tail call void @_Z15blake2sp_updateP14blake2sp_statePKhm(ptr noundef %24, ptr noundef %1, i64 noundef %2)
  br label %25

25:                                               ; preds = %22, %19
  ret void
}